(dp1
S'output'
p2
S"<class 'pymysql.err.InternalError'> (1071, u'Specified key was too long; max key length is 767 bytes')"
p3
sS'layer'
p4
S'/home/sanu/web2py/applications/app2/models/db1.py'
p5
sS'code'
p6
S"# auth.signature add default fields like the created on/ create by/ modified by/ modified on\ndb.define_table('blog_post',\n\tField('title', requires=IS_NOT_EMPTY()),\n\tField('body', 'text', requires=IS_NOT_EMPTY()),\n\tauth.signature)\n\ndb.define_table('blog_comment',\n\tField('blog_post', 'reference blog_post'),\n\tField('comments', 'text', requires=IS_NOT_EMPTY()),\n\tauth.signature\n\t)\ndb.blog_post.title.requires = IS_NOT_IN_DB(db, db.blog_post.title)\n\ndb.define_table('test',\n    Field('first_name', requires = IS_NOT_EMPTY()),\n    Field('last_name', requires = IS_NOT_EMPTY()),\n    Field('email', unique = True, requires= IS_EMAIL()))\n\n"
p7
sS'snapshot'
p8
(dp9
S'exception'
p10
(dp11
S'__module__'
p12
S"'pymysql.err'"
p13
sS'__getslice__'
p14
S"<method-wrapper '__getslice__' of InternalError object>"
p15
sS'__str__'
p16
S"<method-wrapper '__str__' of InternalError object>"
p17
sS'__reduce__'
p18
S'<built-in method __reduce__ of InternalError object>'
p19
sS'__dict__'
p20
S'{}'
p21
sS'__sizeof__'
p22
S'<built-in method __sizeof__ of InternalError object>'
p23
sS'__weakref__'
p24
S'None'
p25
sS'__init__'
p26
S"<method-wrapper '__init__' of InternalError object>"
p27
sS'__setattr__'
p28
S"<method-wrapper '__setattr__' of InternalError object>"
p29
sS'__reduce_ex__'
p30
S'<built-in method __reduce_ex__ of InternalError object>'
p31
sS'__new__'
p32
S'<built-in method __new__ of type object>'
p33
sS'__format__'
p34
S'<built-in method __format__ of InternalError object>'
p35
sS'__class__'
p36
S"<class 'pymysql.err.InternalError'>"
p37
sS'__doc__'
p38
S"'Exception raised when the database encounters an...anymore, the transaction is\\n    out of sync, etc.'"
p39
sS'__getitem__'
p40
S"<method-wrapper '__getitem__' of InternalError object>"
p41
sS'__setstate__'
p42
S'<built-in method __setstate__ of InternalError object>'
p43
sS'__getattribute__'
p44
S"<method-wrapper '__getattribute__' of InternalError object>"
p45
sS'args'
p46
S"(1071, u'Specified key was too long; max key length is 767 bytes')"
p47
sS'__subclasshook__'
p48
S'<built-in method __subclasshook__ of type object>'
p49
sS'__unicode__'
p50
S'<built-in method __unicode__ of InternalError object>'
p51
sS'__delattr__'
p52
S"<method-wrapper '__delattr__' of InternalError object>"
p53
sS'__repr__'
p54
S"<method-wrapper '__repr__' of InternalError object>"
p55
sS'__hash__'
p56
S"<method-wrapper '__hash__' of InternalError object>"
p57
ssS'evalue'
p58
S"(1071, u'Specified key was too long; max key length is 767 bytes')"
p59
sS'request'
p60
cgluon.html
XML_unpickle
p61
(S's\xedY\x00\x00<div><table><tr><td style="font-weight:bold;vertical-align:top;">ajax</td><td style="vertical-align:top;">:</td><td><div>False</div></td></tr><tr><td style="font-weight:bold;vertical-align:top;">application</td><td style="vertical-align:top;">:</td><td><div>app2</div></td></tr><tr><td style="font-weight:bold;vertical-align:top;">args</td><td style="vertical-align:top;">:</td><td><div><table></table></div></td></tr><tr><td style="font-weight:bold;vertical-align:top;">cid</td><td style="vertical-align:top;">:</td><td><div>None</div></td></tr><tr><td style="font-weight:bold;vertical-align:top;">client</td><td style="vertical-align:top;">:</td><td><div>127.0.0.1</div></td></tr><tr><td style="font-weight:bold;vertical-align:top;">controller</td><td style="vertical-align:top;">:</td><td><div>default</div></td></tr><tr><td style="font-weight:bold;vertical-align:top;">cookies</td><td style="vertical-align:top;">:</td><td><div><table><tr><td style="font-weight:bold;vertical-align:top;">is_show_menu</td><td style="vertical-align:top;">:</td><td><div>1<table><tr><td style="font-weight:bold;vertical-align:top;">comment</td><td style="vertical-align:top;">:</td><td><div></div></td></tr><tr><td style="font-weight:bold;vertical-align:top;">domain</td><td style="vertical-align:top;">:</td><td><div></div></td></tr><tr><td style="font-weight:bold;vertical-align:top;">expires</td><td style="vertical-align:top;">:</td><td><div></div></td></tr><tr><td style="font-weight:bold;vertical-align:top;">httponly</td><td style="vertical-align:top;">:</td><td><div></div></td></tr><tr><td style="font-weight:bold;vertical-align:top;">max-age</td><td style="vertical-align:top;">:</td><td><div></div></td></tr><tr><td style="font-weight:bold;vertical-align:top;">path</td><td style="vertical-align:top;">:</td><td><div></div></td></tr><tr><td style="font-weight:bold;vertical-align:top;">secure</td><td style="vertical-align:top;">:</td><td><div></div></td></tr><tr><td style="font-weight:bold;vertical-align:top;">version</td><td style="vertical-align:top;">:</td><td><div></div></td></tr></table></div></td></tr><tr><td style="font-weight:bold;vertical-align:top;">session_id_admin</td><td style="vertical-align:top;">:</td><td><div>127.0.0.1-222c30ed-5de2-4fd3-bb36-1020eaa90c95<table><tr><td style="font-weight:bold;vertical-align:top;">comment</td><td style="vertical-align:top;">:</td><td><div></div></td></tr><tr><td style="font-weight:bold;vertical-align:top;">domain</td><td style="vertical-align:top;">:</td><td><div></div></td></tr><tr><td style="font-weight:bold;vertical-align:top;">expires</td><td style="vertical-align:top;">:</td><td><div></div></td></tr><tr><td style="font-weight:bold;vertical-align:top;">httponly</td><td style="vertical-align:top;">:</td><td><div></div></td></tr><tr><td style="font-weight:bold;vertical-align:top;">max-age</td><td style="vertical-align:top;">:</td><td><div></div></td></tr><tr><td style="font-weight:bold;vertical-align:top;">path</td><td style="vertical-align:top;">:</td><td><div></div></td></tr><tr><td style="font-weight:bold;vertical-align:top;">secure</td><td style="vertical-align:top;">:</td><td><div></div></td></tr><tr><td style="font-weight:bold;vertical-align:top;">version</td><td style="vertical-align:top;">:</td><td><div></div></td></tr></table></div></td></tr><tr><td style="font-weight:bold;vertical-align:top;">session_id_app2</td><td style="vertical-align:top;">:</td><td><div>127.0.0.1-7c47f3e0-57bb-4d74-990c-e53a614be334<table><tr><td style="font-weight:bold;vertical-align:top;">comment</td><td style="vertical-align:top;">:</td><td><div></div></td></tr><tr><td style="font-weight:bold;vertical-align:top;">domain</td><td style="vertical-align:top;">:</td><td><div></div></td></tr><tr><td style="font-weight:bold;vertical-align:top;">expires</td><td style="vertical-align:top;">:</td><td><div></div></td></tr><tr><td style="font-weight:bold;vertical-align:top;">httponly</td><td style="vertical-align:top;">:</td><td><div></div></td></tr><tr><td style="font-weight:bold;vertical-align:top;">max-age</td><td style="vertical-align:top;">:</td><td><div></div></td></tr><tr><td style="font-weight:bold;vertical-align:top;">path</td><td style="vertical-align:top;">:</td><td><div></div></td></tr><tr><td style="font-weight:bold;vertical-align:top;">secure</td><td style="vertical-align:top;">:</td><td><div></div></td></tr><tr><td style="font-weight:bold;vertical-align:top;">version</td><td style="vertical-align:top;">:</td><td><div></div></td></tr></table></div></td></tr></table></div></td></tr><tr><td style="font-weight:bold;vertical-align:top;">env</td><td style="vertical-align:top;">:</td><td><div><table><tr><td style="font-weight:bold;vertical-align:top;">HTTP_ACCEPT</td><td style="vertical-align:top;">:</td><td><div>text/html,application/xhtml+xml,application/xml;q=0.9,image/webp,*/*;q=0.8</div></td></tr><tr><td style="font-weight:bold;vertical-align:top;">HTTP_ACCEPT_ENCODING</td><td style="vertical-align:top;">:</td><td><div>gzip, deflate, sdch, br</div></td></tr><tr><td style="font-weight:bold;vertical-align:top;">HTTP_ACCEPT_LANGUAGE</td><td style="vertical-align:top;">:</td><td><div>en-US,en;q=0.8</div></td></tr><tr><td style="font-weight:bold;vertical-align:top;">HTTP_CACHE_CONTROL</td><td style="vertical-align:top;">:</td><td><div>max-age=0</div></td></tr><tr><td style="font-weight:bold;vertical-align:top;">HTTP_CONNECTION</td><td style="vertical-align:top;">:</td><td><div>keep-alive</div></td></tr><tr><td style="font-weight:bold;vertical-align:top;">HTTP_COOKIE</td><td style="vertical-align:top;">:</td><td><div>is_show_menu=1; session_id_app2=127.0.0.1-7c47f3e0-57bb-4d74-990c-e53a614be334; session_id_admin=127.0.0.1-222c30ed-5de2-4fd3-bb36-1020eaa90c95</div></td></tr><tr><td style="font-weight:bold;vertical-align:top;">HTTP_HOST</td><td style="vertical-align:top;">:</td><td><div>127.0.0.1:8000</div></td></tr><tr><td style="font-weight:bold;vertical-align:top;">HTTP_UPGRADE_INSECURE_REQUESTS</td><td style="vertical-align:top;">:</td><td><div>1</div></td></tr><tr><td style="font-weight:bold;vertical-align:top;">HTTP_USER_AGENT</td><td style="vertical-align:top;">:</td><td><div>Mozilla/5.0 (X11; Linux x86_64) AppleWebKit/537.36 (KHTML, like Gecko) Chrome/54.0.2840.59 Safari/537.36</div></td></tr><tr><td style="font-weight:bold;vertical-align:top;">PATH_INFO</td><td style="vertical-align:top;">:</td><td><div>/app2/default/test</div></td></tr><tr><td style="font-weight:bold;vertical-align:top;">QUERY_STRING</td><td style="vertical-align:top;">:</td><td><div></div></td></tr><tr><td style="font-weight:bold;vertical-align:top;">REMOTE_ADDR</td><td style="vertical-align:top;">:</td><td><div>127.0.0.1</div></td></tr><tr><td style="font-weight:bold;vertical-align:top;">REMOTE_PORT</td><td style="vertical-align:top;">:</td><td><div>42345</div></td></tr><tr><td style="font-weight:bold;vertical-align:top;">REQUEST_METHOD</td><td style="vertical-align:top;">:</td><td><div>GET</div></td></tr><tr><td style="font-weight:bold;vertical-align:top;">SCRIPT_NAME</td><td style="vertical-align:top;">:</td><td><div></div></td></tr><tr><td style="font-weight:bold;vertical-align:top;">SERVER_NAME</td><td style="vertical-align:top;">:</td><td><div>PITSWS429</div></td></tr><tr><td style="font-weight:bold;vertical-align:top;">SERVER_PORT</td><td style="vertical-align:top;">:</td><td><div>8000</div></td></tr><tr><td style="font-weight:bold;vertical-align:top;">SERVER_PROTOCOL</td><td style="vertical-align:top;">:</td><td><div>HTTP/1.1</div></td></tr><tr><td style="font-weight:bold;vertical-align:top;">SERVER_SOFTWARE</td><td style="vertical-align:top;">:</td><td><div>Rocket 1.2.6</div></td></tr><tr><td style="font-weight:bold;vertical-align:top;">app_folders</td><td style="vertical-align:top;">:</td><td><div>set([&#x27;/home/sanu/web2py/applications/app2/&#x27;, &#x27;/home/sanu/web2py/applications/admin/&#x27;, &#x27;/home/sanu/web2py/applications/welcome/&#x27;])</div></td></tr><tr><td style="font-weight:bold;vertical-align:top;">applications_parent</td><td style="vertical-align:top;">:</td><td><div>/home/sanu/web2py</div></td></tr><tr><td style="font-weight:bold;vertical-align:top;">cmd_args</td><td style="vertical-align:top;">:</td><td><div><table></table></div></td></tr><tr><td style="font-weight:bold;vertical-align:top;">cmd_options</td><td style="vertical-align:top;">:</td><td><div>&lt;Values at 0x7f09cf1ce3b0: {&#x27;verbose&#x27;: False, &#x27;ip&#x27;: &#x27;127.0.0.1&#x27;, &#x27;debuglevel&#x27;: 30, &#x27;with_scheduler&#x27;: False, &#x27;shutdown_timeout&#x27;: 5, &#x27;taskbar&#x27;: False, &#x27;with_coverage&#x27;: False, &#x27;pid_filename&#x27;: &#x27;httpserver.pid&#x27;, &#x27;maxthreads&#x27;: None, &#x27;softcron&#x27;: False, &#x27;server_name&#x27;: &#x27;PITSWS429&#x27;, &#x27;bpython&#x27;: False, &#x27;nogui&#x27;: False, &#x27;port&#x27;: 8000, &#x27;print_errors&#x27;: False, &#x27;extcron&#x27;: False, &#x27;runcron&#x27;: False, &#x27;run_system_tests&#x27;: False, &#x27;test&#x27;: None, &#x27;folder&#x27;: &#x27;/home/sanu/web2py&#x27;, &#x27;config&#x27;: &#x27;&#x27;, &#x27;minthreads&#x27;: None, &#x27;shell&#x27;: None, &#x27;run&#x27;: &#x27;&#x27;, &#x27;log_filename&#x27;: &#x27;httpserver.log&#x27;, &#x27;profiler_dir&#x27;: None, &#x27;args&#x27;: [&#x27;&#x27;], &#x27;socket_timeout&#x27;: 5, &#x27;ssl_ca_certificate&#x27;: None, &#x27;scheduler&#x27;: None, &#x27;interfaces&#x27;: None, &#x27;ssl_private_key&#x27;: &#x27;&#x27;, &#x27;gae&#x27;: None, &#x27;password&#x27;: &#x27;******&#x27;, &#x27;request_queue_size&#x27;: 5, &#x27;ssl_certificate&#x27;: &#x27;&#x27;, &#x27;cronjob&#x27;: False, &#x27;numthreads&#x27;: None, &#x27;quiet&#x27;: False, &#x27;import_models&#x27;: False, &#x27;timeout&#x27;: 10, &#x27;plain&#x27;: False, &#x27;nobanner&#x27;: False}&gt;</div></td></tr><tr><td style="font-weight:bold;vertical-align:top;">db_sessions</td><td style="vertical-align:top;">:</td><td><div>set([])</div></td></tr><tr><td style="font-weight:bold;vertical-align:top;">debugging</td><td style="vertical-align:top;">:</td><td><div>False</div></td></tr><tr><td style="font-weight:bold;vertical-align:top;">gluon_parent</td><td style="vertical-align:top;">:</td><td><div>/home/sanu/web2py</div></td></tr><tr><td style="font-weight:bold;vertical-align:top;">http_accept</td><td style="vertical-align:top;">:</td><td><div>text/html,application/xhtml+xml,application/xml;q=0.9,image/webp,*/*;q=0.8</div></td></tr><tr><td style="font-weight:bold;vertical-align:top;">http_accept_encoding</td><td style="vertical-align:top;">:</td><td><div>gzip, deflate, sdch, br</div></td></tr><tr><td style="font-weight:bold;vertical-align:top;">http_accept_language</td><td style="vertical-align:top;">:</td><td><div>en-US,en;q=0.8</div></td></tr><tr><td style="font-weight:bold;vertical-align:top;">http_cache_control</td><td style="vertical-align:top;">:</td><td><div>max-age=0</div></td></tr><tr><td style="font-weight:bold;vertical-align:top;">http_connection</td><td style="vertical-align:top;">:</td><td><div>keep-alive</div></td></tr><tr><td style="font-weight:bold;vertical-align:top;">http_cookie</td><td style="vertical-align:top;">:</td><td><div>is_show_menu=1; session_id_app2=127.0.0.1-7c47f3e0-57bb-4d74-990c-e53a614be334; session_id_admin=127.0.0.1-222c30ed-5de2-4fd3-bb36-1020eaa90c95</div></td></tr><tr><td style="font-weight:bold;vertical-align:top;">http_host</td><td style="vertical-align:top;">:</td><td><div>127.0.0.1:8000</div></td></tr><tr><td style="font-weight:bold;vertical-align:top;">http_upgrade_insecure_requests</td><td style="vertical-align:top;">:</td><td><div>1</div></td></tr><tr><td style="font-weight:bold;vertical-align:top;">http_user_agent</td><td style="vertical-align:top;">:</td><td><div>Mozilla/5.0 (X11; Linux x86_64) AppleWebKit/537.36 (KHTML, like Gecko) Chrome/54.0.2840.59 Safari/537.36</div></td></tr><tr><td style="font-weight:bold;vertical-align:top;">is_jython</td><td style="vertical-align:top;">:</td><td><div>False</div></td></tr><tr><td style="font-weight:bold;vertical-align:top;">is_pypy</td><td style="vertical-align:top;">:</td><td><div>False</div></td></tr><tr><td style="font-weight:bold;vertical-align:top;">is_source</td><td style="vertical-align:top;">:</td><td><div>True</div></td></tr><tr><td style="font-weight:bold;vertical-align:top;">local_hosts</td><td style="vertical-align:top;">:</td><td><div><table><tr><td><div>127.0.1.1</div></td></tr><tr><td><div>::1</div></td></tr><tr><td><div>PITSWS429</div></td></tr><tr><td><div>::ffff:127.0.0.1</div></td></tr><tr><td><div>127.0.0.1</div></td></tr></table></div></td></tr><tr><td style="font-weight:bold;vertical-align:top;">path_info</td><td style="vertical-align:top;">:</td><td><div>/app2/default/test</div></td></tr><tr><td style="font-weight:bold;vertical-align:top;">query_string</td><td style="vertical-align:top;">:</td><td><div></div></td></tr><tr><td style="font-weight:bold;vertical-align:top;">remote_addr</td><td style="vertical-align:top;">:</td><td><div>127.0.0.1</div></td></tr><tr><td style="font-weight:bold;vertical-align:top;">remote_port</td><td style="vertical-align:top;">:</td><td><div>42345</div></td></tr><tr><td style="font-weight:bold;vertical-align:top;">request_method</td><td style="vertical-align:top;">:</td><td><div>GET</div></td></tr><tr><td style="font-weight:bold;vertical-align:top;">request_uri</td><td style="vertical-align:top;">:</td><td><div>/app2/default/test</div></td></tr><tr><td style="font-weight:bold;vertical-align:top;">script_name</td><td style="vertical-align:top;">:</td><td><div></div></td></tr><tr><td style="font-weight:bold;vertical-align:top;">server_name</td><td style="vertical-align:top;">:</td><td><div>PITSWS429</div></td></tr><tr><td style="font-weight:bold;vertical-align:top;">server_port</td><td style="vertical-align:top;">:</td><td><div>8000</div></td></tr><tr><td style="font-weight:bold;vertical-align:top;">server_protocol</td><td style="vertical-align:top;">:</td><td><div>HTTP/1.1</div></td></tr><tr><td style="font-weight:bold;vertical-align:top;">server_software</td><td style="vertical-align:top;">:</td><td><div>Rocket 1.2.6</div></td></tr><tr><td style="font-weight:bold;vertical-align:top;">web2py_path</td><td style="vertical-align:top;">:</td><td><div>/home/sanu/web2py</div></td></tr><tr><td style="font-weight:bold;vertical-align:top;">web2py_version</td><td style="vertical-align:top;">:</td><td><div>2.14.6-stable+timestamp.2016.05.10.00.21.47</div></td></tr><tr><td style="font-weight:bold;vertical-align:top;">wsgi.errors</td><td style="vertical-align:top;">:</td><td><div>&lt;open file &#x27;&lt;stderr&gt;&#x27;, mode &#x27;w&#x27; at 0x7f09dad991e0&gt;</div></td></tr><tr><td style="font-weight:bold;vertical-align:top;">wsgi.file_wrapper</td><td style="vertical-align:top;">:</td><td><div>&lt;class wsgiref.util.FileWrapper at 0x7f09cf1fa328&gt;</div></td></tr><tr><td style="font-weight:bold;vertical-align:top;">wsgi.input</td><td style="vertical-align:top;">:</td><td><div>&lt;socket._fileobject object at 0x7f099ab8f050&gt;</div></td></tr><tr><td style="font-weight:bold;vertical-align:top;">wsgi.multiprocess</td><td style="vertical-align:top;">:</td><td><div>False</div></td></tr><tr><td style="font-weight:bold;vertical-align:top;">wsgi.multithread</td><td style="vertical-align:top;">:</td><td><div>True</div></td></tr><tr><td style="font-weight:bold;vertical-align:top;">wsgi.run_once</td><td style="vertical-align:top;">:</td><td><div>False</div></td></tr><tr><td style="font-weight:bold;vertical-align:top;">wsgi.url_scheme</td><td style="vertical-align:top;">:</td><td><div>http</div></td></tr><tr><td style="font-weight:bold;vertical-align:top;">wsgi.version</td><td style="vertical-align:top;">:</td><td><div><table><tr><td><div>1</div></td></tr><tr><td><div>0</div></td></tr></table></div></td></tr><tr><td style="font-weight:bold;vertical-align:top;">wsgi_errors</td><td style="vertical-align:top;">:</td><td><div>&lt;open file &#x27;&lt;stderr&gt;&#x27;, mode &#x27;w&#x27; at 0x7f09dad991e0&gt;</div></td></tr><tr><td style="font-weight:bold;vertical-align:top;">wsgi_file_wrapper</td><td style="vertical-align:top;">:</td><td><div>&lt;class wsgiref.util.FileWrapper at 0x7f09cf1fa328&gt;</div></td></tr><tr><td style="font-weight:bold;vertical-align:top;">wsgi_input</td><td style="vertical-align:top;">:</td><td><div>&lt;socket._fileobject object at 0x7f099ab8f050&gt;</div></td></tr><tr><td style="font-weight:bold;vertical-align:top;">wsgi_multiprocess</td><td style="vertical-align:top;">:</td><td><div>False</div></td></tr><tr><td style="font-weight:bold;vertical-align:top;">wsgi_multithread</td><td style="vertical-align:top;">:</td><td><div>True</div></td></tr><tr><td style="font-weight:bold;vertical-align:top;">wsgi_run_once</td><td style="vertical-align:top;">:</td><td><div>False</div></td></tr><tr><td style="font-weight:bold;vertical-align:top;">wsgi_url_scheme</td><td style="vertical-align:top;">:</td><td><div>http</div></td></tr><tr><td style="font-weight:bold;vertical-align:top;">wsgi_version</td><td style="vertical-align:top;">:</td><td><div><table><tr><td><div>1</div></td></tr><tr><td><div>0</div></td></tr></table></div></td></tr></table></div></td></tr><tr><td style="font-weight:bold;vertical-align:top;">extension</td><td style="vertical-align:top;">:</td><td><div>html</div></td></tr><tr><td style="font-weight:bold;vertical-align:top;">folder</td><td style="vertical-align:top;">:</td><td><div>/home/sanu/web2py/applications/app2/</div></td></tr><tr><td style="font-weight:bold;vertical-align:top;">function</td><td style="vertical-align:top;">:</td><td><div>test</div></td></tr><tr><td style="font-weight:bold;vertical-align:top;">global_settings</td><td style="vertical-align:top;">:</td><td><div><table><tr><td style="font-weight:bold;vertical-align:top;">app_folders</td><td style="vertical-align:top;">:</td><td><div>set([&#x27;/home/sanu/web2py/applications/app2/&#x27;, &#x27;/home/sanu/web2py/applications/admin/&#x27;, &#x27;/home/sanu/web2py/applications/welcome/&#x27;])</div></td></tr><tr><td style="font-weight:bold;vertical-align:top;">applications_parent</td><td style="vertical-align:top;">:</td><td><div>/home/sanu/web2py</div></td></tr><tr><td style="font-weight:bold;vertical-align:top;">cmd_args</td><td style="vertical-align:top;">:</td><td><div><table></table></div></td></tr><tr><td style="font-weight:bold;vertical-align:top;">cmd_options</td><td style="vertical-align:top;">:</td><td><div>&lt;Values at 0x7f09cf1ce3b0: {&#x27;verbose&#x27;: False, &#x27;ip&#x27;: &#x27;127.0.0.1&#x27;, &#x27;debuglevel&#x27;: 30, &#x27;with_scheduler&#x27;: False, &#x27;shutdown_timeout&#x27;: 5, &#x27;taskbar&#x27;: False, &#x27;with_coverage&#x27;: False, &#x27;pid_filename&#x27;: &#x27;httpserver.pid&#x27;, &#x27;maxthreads&#x27;: None, &#x27;softcron&#x27;: False, &#x27;server_name&#x27;: &#x27;PITSWS429&#x27;, &#x27;bpython&#x27;: False, &#x27;nogui&#x27;: False, &#x27;port&#x27;: 8000, &#x27;print_errors&#x27;: False, &#x27;extcron&#x27;: False, &#x27;runcron&#x27;: False, &#x27;run_system_tests&#x27;: False, &#x27;test&#x27;: None, &#x27;folder&#x27;: &#x27;/home/sanu/web2py&#x27;, &#x27;config&#x27;: &#x27;&#x27;, &#x27;minthreads&#x27;: None, &#x27;shell&#x27;: None, &#x27;run&#x27;: &#x27;&#x27;, &#x27;log_filename&#x27;: &#x27;httpserver.log&#x27;, &#x27;profiler_dir&#x27;: None, &#x27;args&#x27;: [&#x27;&#x27;], &#x27;socket_timeout&#x27;: 5, &#x27;ssl_ca_certificate&#x27;: None, &#x27;scheduler&#x27;: None, &#x27;interfaces&#x27;: None, &#x27;ssl_private_key&#x27;: &#x27;&#x27;, &#x27;gae&#x27;: None, &#x27;password&#x27;: &#x27;******&#x27;, &#x27;request_queue_size&#x27;: 5, &#x27;ssl_certificate&#x27;: &#x27;&#x27;, &#x27;cronjob&#x27;: False, &#x27;numthreads&#x27;: None, &#x27;quiet&#x27;: False, &#x27;import_models&#x27;: False, &#x27;timeout&#x27;: 10, &#x27;plain&#x27;: False, &#x27;nobanner&#x27;: False}&gt;</div></td></tr><tr><td style="font-weight:bold;vertical-align:top;">db_sessions</td><td style="vertical-align:top;">:</td><td><div>set([])</div></td></tr><tr><td style="font-weight:bold;vertical-align:top;">debugging</td><td style="vertical-align:top;">:</td><td><div>False</div></td></tr><tr><td style="font-weight:bold;vertical-align:top;">gluon_parent</td><td style="vertical-align:top;">:</td><td><div>/home/sanu/web2py</div></td></tr><tr><td style="font-weight:bold;vertical-align:top;">is_jython</td><td style="vertical-align:top;">:</td><td><div>False</div></td></tr><tr><td style="font-weight:bold;vertical-align:top;">is_pypy</td><td style="vertical-align:top;">:</td><td><div>False</div></td></tr><tr><td style="font-weight:bold;vertical-align:top;">is_source</td><td style="vertical-align:top;">:</td><td><div>True</div></td></tr><tr><td style="font-weight:bold;vertical-align:top;">local_hosts</td><td style="vertical-align:top;">:</td><td><div><table><tr><td><div>127.0.1.1</div></td></tr><tr><td><div>::1</div></td></tr><tr><td><div>PITSWS429</div></td></tr><tr><td><div>::ffff:127.0.0.1</div></td></tr><tr><td><div>127.0.0.1</div></td></tr></table></div></td></tr><tr><td style="font-weight:bold;vertical-align:top;">web2py_version</td><td style="vertical-align:top;">:</td><td><div>2.14.6-stable+timestamp.2016.05.10.00.21.47</div></td></tr></table></div></td></tr><tr><td style="font-weight:bold;vertical-align:top;">is_https</td><td style="vertical-align:top;">:</td><td><div>False</div></td></tr><tr><td style="font-weight:bold;vertical-align:top;">is_local</td><td style="vertical-align:top;">:</td><td><div>True</div></td></tr><tr><td style="font-weight:bold;vertical-align:top;">is_restful</td><td style="vertical-align:top;">:</td><td><div>False</div></td></tr><tr><td style="font-weight:bold;vertical-align:top;">is_scheduler</td><td style="vertical-align:top;">:</td><td><div>False</div></td></tr><tr><td style="font-weight:bold;vertical-align:top;">is_shell</td><td style="vertical-align:top;">:</td><td><div>False</div></td></tr><tr><td style="font-weight:bold;vertical-align:top;">now</td><td style="vertical-align:top;">:</td><td><div>datetime.datetime(2016, 11, 1, 12, 53, 5, 718428)</div></td></tr><tr><td style="font-weight:bold;vertical-align:top;">raw_args</td><td style="vertical-align:top;">:</td><td><div></div></td></tr><tr><td style="font-weight:bold;vertical-align:top;">raw_extension</td><td style="vertical-align:top;">:</td><td><div>None</div></td></tr><tr><td style="font-weight:bold;vertical-align:top;">url</td><td style="vertical-align:top;">:</td><td><div>/app2/default/test</div></td></tr><tr><td style="font-weight:bold;vertical-align:top;">utcnow</td><td style="vertical-align:top;">:</td><td><div>datetime.datetime(2016, 11, 1, 7, 23, 5, 718452)</div></td></tr><tr><td style="font-weight:bold;vertical-align:top;">wsgi</td><td style="vertical-align:top;">:</td><td><div>&lt;gluon.main.LazyWSGI object at 0x7f099a715dd0&gt;</div></td></tr></table></div>'
tRp62
sS'frames'
p63
(lp64
(dp65
S'file'
p66
S'/home/sanu/web2py/gluon/restricted.py'
p67
sS'dump'
p68
(dp69
S'environment'
p70
S"{'A': <class 'gluon.html.A'>, 'ANY_OF': <class 'gluon.validators.ANY_OF'>, 'ASSIGNJS': <function ASSIGNJS>, 'AppConfig': <function AppConfig>, 'Auth': <class 'gluon.tools.Auth'>, 'B': <class 'gluon.html.B'>, 'BEAUTIFY': <class 'gluon.html.BEAUTIFY'>, 'BODY': <class 'gluon.html.BODY'>, 'BR': <class 'gluon.html.BR'>, 'BUTTON': <class 'gluon.html.BUTTON'>, ...}"
p71
sS'ccode'
p72
S'<code object <module> at 0x7f099ab8ff30, file "/.../web2py/applications/app2/models/db1.py", line 2>'
p73
ssS'lnum'
p74
I227
sS'lines'
p75
(dp76
I224
S'            ccode = code'
p77
sI225
S'        else:'
p78
sI226
S'            ccode = compile2(code, layer)'
p79
sI227
S'        exec ccode in environment'
p80
sI228
S'    except HTTP:'
p81
sI229
S'        raise'
p82
sI230
S'    except RestrictedError:'
p83
sI231
S'        # do not encapsulate (obfuscate) the original RestrictedError'
p84
sI222
S'    try:'
p85
sI223
S'        if isinstance(code, types.CodeType):'
p86
ssS'call'
p87
S'(code="# auth.signature add default fields like the cre...(\'email\', unique = True, requires= IS_EMAIL()))\\n\\n", environment={\'A\': <class \'gluon.html.A\'>, \'ANY_OF\': <class \'gluon.validators.ANY_OF\'>, \'ASSIGNJS\': <function ASSIGNJS>, \'AppConfig\': <function AppConfig>, \'Auth\': <class \'gluon.tools.Auth\'>, \'B\': <class \'gluon.html.B\'>, \'BEAUTIFY\': <class \'gluon.html.BEAUTIFY\'>, \'BODY\': <class \'gluon.html.BODY\'>, \'BR\': <class \'gluon.html.BR\'>, \'BUTTON\': <class \'gluon.html.BUTTON\'>, ...}, layer=\'/home/sanu/web2py/applications/app2/models/db1.py\')'
p88
sS'func'
p89
S'restricted'
p90
sa(dp91
g66
S'/home/sanu/web2py/applications/app2/models/db1.py'
p92
sg68
(dp93
S'Field'
p94
S"<class 'pydal.objects.Field'>"
p95
sS'builtinTrue'
p96
S'True'
p97
sS'unique'
p98
S'undefined'
p99
sS'requires'
p100
g99
sS'IS_EMAIL'
p101
S"<class 'gluon.validators.IS_EMAIL'>"
p102
ssg74
I17
sg75
(dp103
I9
S"\tField('comments', 'text', requires=IS_NOT_EMPTY()),"
p104
sI10
S'\tauth.signature'
p105
sI11
S'\t)'
p106
sI12
S'db.blog_post.title.requires = IS_NOT_IN_DB(db, db.blog_post.title)'
p107
sI13
S''
sI14
S"db.define_table('test',"
p108
sI15
S"    Field('first_name', requires = IS_NOT_EMPTY()),"
p109
sI16
S"    Field('last_name', requires = IS_NOT_EMPTY()),"
p110
sI17
S"    Field('email', unique = True, requires= IS_EMAIL()))"
p111
sI18
S''
ssg87
S'()'
p112
sg89
S'<module>'
p113
sa(dp114
g66
S'/home/sanu/web2py/gluon/packages/dal/pydal/base.py'
p115
sg68
(dp116
S'fields'
p117
S'(<pydal.objects.Field object>, <pydal.objects.Field object>, <pydal.objects.Field object>)'
p118
sS'self'
p119
S'<DAL uri="mysql:******@localhost/app2_db">'
p120
sS'args'
p121
g21
sS'tablename'
p122
S"'test'"
p123
sS'table'
p124
g99
sS'self.lazy_define_table'
p125
S'<bound method DAL.lazy_define_table of <DAL uri="mysql:******@localhost/app2_db">>'
p126
ssg74
I834
sg75
(dp127
I832
S'            table = None'
p128
sI833
S'        else:'
p129
sI834
S'            table = self.lazy_define_table(tablename,*fields,**args)'
p130
sI835
S'        if not tablename in self.tables:'
p131
sI836
S'            self.tables.append(tablename)'
p132
sI837
S'        return table'
p133
sI838
S''
sI829
S'                    % (tablename,invalid_args))'
p134
sI830
S'        if self._lazy_tables and tablename not in self._LAZY_TABLES:'
p135
sI831
S'            self._LAZY_TABLES[tablename] = (tablename,fields,args)'
p136
ssg87
S'(self=<DAL uri="mysql:******@localhost/app2_db">, tablename=\'test\', *fields=(<pydal.objects.Field object>, <pydal.objects.Field object>, <pydal.objects.Field object>), **args={})'
p137
sg89
S'define_table'
p138
sa(dp139
g66
S'/home/sanu/web2py/gluon/packages/dal/pydal/base.py'
p140
sg68
(dp141
S'polymodel'
p142
S'None'
p143
ssg74
I873
sg75
(dp144
I868
S'            try:'
p145
sI869
S'                GLOBAL_LOCKER.acquire()'
p146
sI870
S'                self._lastsql = self._adapter.create_table('
p147
sI871
S'                    table,migrate=migrate,'
p148
sI872
S'                    fake_migrate=fake_migrate,'
p149
sI873
S'                    polymodel=polymodel)'
p150
sI874
S'            finally:'
p151
sI875
S'                GLOBAL_LOCKER.release()'
p152
sI876
S'        else:'
p153
sI877
S'            table._dbt = None'
p154
ssg87
S'(self=<DAL uri="mysql:******@localhost/app2_db">, tablename=\'test\', *fields=(<pydal.objects.Field object>, <pydal.objects.Field object>, <pydal.objects.Field object>), **args={})'
p155
sg89
S'lazy_define_table'
p156
sa(dp157
g66
S'/home/sanu/web2py/gluon/packages/dal/pydal/adapters/base.py'
p158
sg68
(dp159
S'fake_migrate'
p160
S'False'
p161
ssg74
I510
sg75
(dp162
I512
S'        return query'
p163
sI513
S''
sI514
S'    def migrate_table('
p164
sI505
S'            if sql_fields != sql_fields_old:'
p165
sI506
S'                self.migrate_table('
p166
sI507
S'                    table,'
p167
sI508
S'                    sql_fields, sql_fields_old,'
p168
sI509
S'                    sql_fields_aux, None,'
p169
sI510
S'                    fake_migrate=fake_migrate'
p170
sI511
S'                    )'
p171
ssg87
S'(self=<pydal.adapters.mysql.MySQLAdapter object>, table=<Table test (id, first_name, last_name, email)>, migrate=True, fake_migrate=False, polymodel=None)'
p172
sg89
S'create_table'
p173
sa(dp174
g66
S'/home/sanu/web2py/gluon/packages/dal/pydal/adapters/base.py'
p175
sg68
(dp176
S'self'
p177
S'<pydal.adapters.mysql.MySQLAdapter object>'
p178
sS'self.execute'
p179
S'<bound method MySQLAdapter.execute of <pydal.adapters.mysql.MySQLAdapter object>>'
p180
sS'sub_query'
p181
S"'ALTER TABLE test ADD email VARCHAR(512) UNIQUE;'"
p182
ssg74
I623
sg75
(dp183
I618
S'                    if fake_migrate:'
p184
sI619
S'                        if db._adapter.commit_on_alter_table:'
p185
sI620
S'                            self.save_dbt(table,sql_fields_current)'
p186
sI621
S"                        self.log('faked!\\n', table)"
p187
sI622
S'                    else:'
p188
sI623
S'                        self.execute(sub_query)'
p189
sI624
S'                        # Caveat: mysql, oracle and firebird'
p190
sI625
S'                        # do not allow multiple alter table'
p191
sI626
S'                        # in one transaction so we must commit'
p192
sI627
S'                        # partial transactions and'
p193
ssg87
S"(self=<pydal.adapters.mysql.MySQLAdapter object>, table=<Table test (id, first_name, last_name, email)>, sql_fields={'email': {'length': 512, 'notnull': False, 'sortable': 4, 'sql': 'VARCHAR(512) UNIQUE', 'type': 'string', 'unique': True}, 'first_name': {'length': 512, 'notnull': False, 'sortable': 2, 'sql': 'VARCHAR(512)', 'type': 'string', 'unique': False}, 'id': {'length': 512, 'notnull': False, 'sortable': 1, 'sql': 'INT AUTO_INCREMENT NOT NULL', 'type': 'id', 'unique': False}, 'last_name': {'length': 512, 'notnull': False, 'sortable': 3, 'sql': 'VARCHAR(512)', 'type': 'string', 'unique': False}}, sql_fields_old={'first_name': {'length': 512, 'notnull': False, 'sortable': 2, 'sql': 'VARCHAR(512)', 'type': 'string', 'unique': False}, 'id': {'length': 512, 'notnull': False, 'sortable': 1, 'sql': 'INT AUTO_INCREMENT NOT NULL', 'type': 'id', 'unique': False}, 'last_name': {'length': 512, 'notnull': False, 'sortable': 3, 'sql': 'VARCHAR(512)', 'type': 'string', 'unique': False}}, sql_fields_aux={'email': {'sql': 'VARCHAR(512) UNIQUE'}, 'first_name': {'sql': 'VARCHAR(512)'}, 'id': {'sql': 'INT AUTO_INCREMENT NOT NULL'}, 'last_name': {'sql': 'VARCHAR(512)'}}, logfile=None, fake_migrate=False)"
p194
sg89
S'migrate_table'
p195
sa(dp196
g66
S'/home/sanu/web2py/gluon/packages/dal/pydal/adapters/base.py'
p197
sg68
(dp198
S'a'
S"('ALTER TABLE test ADD email VARCHAR(512) UNIQUE;',)"
p199
sS'self'
p200
S'<pydal.adapters.mysql.MySQLAdapter object>'
p201
sS'b'
g21
sS'self.log_execute'
p202
S'<bound method MySQLAdapter.log_execute of <pydal.adapters.mysql.MySQLAdapter object>>'
p203
ssg74
I1388
sg75
(dp204
I1383
S'        self.db._timings.append((command,time.time()-t0))'
p205
sI1384
S'        del self.db._timings[:-TIMINGSSIZE]'
p206
sI1385
S'        return ret'
p207
sI1386
S''
sI1387
S'    def execute(self, *a, **b):'
p208
sI1388
S'        return self.log_execute(*a, **b)'
p209
sI1389
S''
sI1390
S'    def execute_test_query(self):'
p210
sI1391
S'        return self.execute(self.test_query)'
p211
sI1392
S''
ssg87
S"(self=<pydal.adapters.mysql.MySQLAdapter object>, *a=('ALTER TABLE test ADD email VARCHAR(512) UNIQUE;',), **b={})"
p212
sg89
S'execute'
p213
sa(dp214
g66
S'/home/sanu/web2py/gluon/packages/dal/pydal/adapters/base.py'
p215
sg68
(dp216
S'a'
S"('ALTER TABLE test ADD email VARCHAR(512) UNIQUE;',)"
p217
sS'b'
g21
sS'self'
p218
S'<pydal.adapters.mysql.MySQLAdapter object>'
p219
sS'ret'
p220
g99
sS'command'
p221
S"'ALTER TABLE test ADD email VARCHAR(512) UNIQUE;'"
p222
sS'self.get_cursor'
p223
S'<bound method MySQLAdapter.get_cursor of <pydal.adapters.mysql.MySQLAdapter object>>'
p224
sS').execute'
p225
g99
ssg74
I1382
sg75
(dp226
I1377
S'            command = self.filter_sql_command(command)'
p227
sI1378
S'        if self.db._debug:'
p228
sI1379
S"            self.db.logger.debug('SQL: %s' % command)"
p229
sI1380
S'        self.db._lastsql = command'
p230
sI1381
S'        t0 = time.time()'
p231
sI1382
S'        ret = self.get_cursor().execute(command, *a[1:], **b)'
p232
sI1383
S'        self.db._timings.append((command,time.time()-t0))'
p233
sI1384
S'        del self.db._timings[:-TIMINGSSIZE]'
p234
sI1385
S'        return ret'
p235
sI1386
S''
ssg87
S"(self=<pydal.adapters.mysql.MySQLAdapter object>, *a=('ALTER TABLE test ADD email VARCHAR(512) UNIQUE;',), **b={})"
p236
sg89
S'log_execute'
p237
sa(dp238
g66
S'/usr/local/lib/python2.7/dist-packages/pymysql/cursors.py'
p239
sg68
(dp240
S'query'
p241
S"'ALTER TABLE test ADD email VARCHAR(512) UNIQUE;'"
p242
sS'self'
p243
S'<pymysql.cursors.Cursor object>'
p244
sS'result'
p245
g99
sS'self._query'
p246
S'<bound method Cursor._query of <pymysql.cursors.Cursor object>>'
p247
ssg74
I166
sg75
(dp248
I161
S'        while self.nextset():'
p249
sI162
S'            pass'
p250
sI163
S''
sI164
S'        query = self.mogrify(query, args)'
p251
sI165
S''
sI166
S'        result = self._query(query)'
p252
sI167
S'        self._executed = query'
p253
sI168
S'        return result'
p254
sI169
S''
sI170
S'    def executemany(self, query, args):'
p255
ssg87
S"(self=<pymysql.cursors.Cursor object>, query='ALTER TABLE test ADD email VARCHAR(512) UNIQUE;', args=None)"
p256
sg89
g213
sa(dp257
g66
S'/usr/local/lib/python2.7/dist-packages/pymysql/cursors.py'
p258
sg68
(dp259
S'q'
S"'ALTER TABLE test ADD email VARCHAR(512) UNIQUE;'"
p260
sS'conn.query'
p261
S'<bound method Connection.query of <pymysql.connections.Connection object>>'
p262
sS'conn'
p263
S'<pymysql.connections.Connection object>'
p264
ssg74
I322
sg75
(dp265
I320
S'        conn = self._get_db()'
p266
sI321
S'        self._last_executed = q'
p267
sI322
S'        conn.query(q)'
p268
sI323
S'        self._do_get_result()'
p269
sI324
S'        return self.rowcount'
p270
sI325
S''
sI326
S'    def _do_get_result(self):'
p271
sI317
S'        self.rownumber = r'
p272
sI318
S''
sI319
S'    def _query(self, q):'
p273
ssg87
S"(self=<pymysql.cursors.Cursor object>, q='ALTER TABLE test ADD email VARCHAR(512) UNIQUE;')"
p274
sg89
S'_query'
p275
sa(dp276
g66
S'/usr/local/lib/python2.7/dist-packages/pymysql/connections.py'
p277
sg68
(dp278
S'self._read_query_result'
p279
S'<bound method Connection._read_query_result of <pymysql.connections.Connection object>>'
p280
sS'self'
p281
S'<pymysql.connections.Connection object>'
p282
sS'unbuffered'
p283
g161
sS'self._affected_rows'
p284
S'0'
ssg74
I835
sg75
(dp285
I832
S'            else:'
p286
sI833
S"                sql = sql.encode(self.encoding, 'surrogateescape')"
p287
sI834
S'        self._execute_command(COMMAND.COM_QUERY, sql)'
p288
sI835
S'        self._affected_rows = self._read_query_result(unbuffered=unbuffered)'
p289
sI836
S'        return self._affected_rows'
p290
sI837
S''
sI838
S'    def next_result(self, unbuffered=False):'
p291
sI839
S'        self._affected_rows = self._read_query_result(unbuffered=unbuffered)'
p292
sI830
S'            if PY2:'
p293
sI831
S'                sql = sql.encode(self.encoding)'
p294
ssg87
S"(self=<pymysql.connections.Connection object>, sql='ALTER TABLE test ADD email VARCHAR(512) UNIQUE;', unbuffered=False)"
p295
sg89
S'query'
p296
sa(dp297
g66
S'/usr/local/lib/python2.7/dist-packages/pymysql/connections.py'
p298
sg68
(dp299
S'result.read'
p300
S'<bound method MySQLResult.read of <pymysql.connections.MySQLResult object>>'
p301
sS'result'
p302
S'<pymysql.connections.MySQLResult object>'
p303
ssg74
I1019
sg75
(dp304
I1014
S'                result.unbuffered_active = False'
p305
sI1015
S'                result.connection = None'
p306
sI1016
S'                raise'
p307
sI1017
S'        else:'
p308
sI1018
S'            result = MySQLResult(self)'
p309
sI1019
S'            result.read()'
p310
sI1020
S'        self._result = result'
p311
sI1021
S'        if result.server_status is not None:'
p312
sI1022
S'            self.server_status = result.server_status'
p313
sI1023
S'        return result.affected_rows'
p314
ssg87
S'(self=<pymysql.connections.Connection object>, unbuffered=False)'
p315
sg89
S'_read_query_result'
p316
sa(dp317
g66
S'/usr/local/lib/python2.7/dist-packages/pymysql/connections.py'
p318
sg68
(dp319
S'first_packet'
p320
g99
sS'self'
p321
S'<pymysql.connections.MySQLResult object>'
p322
sS'self.connection'
p323
S'None'
p324
sS'self.connection._read_packet'
p325
g99
ssg74
I1302
sg75
(dp326
I1297
S'        if self.unbuffered_active:'
p327
sI1298
S'            self._finish_unbuffered_query()'
p328
sI1299
S''
sI1300
S'    def read(self):'
p329
sI1301
S'        try:'
p330
sI1302
S'            first_packet = self.connection._read_packet()'
p331
sI1303
S''
sI1304
S'            if first_packet.is_ok_packet():'
p332
sI1305
S'                self._read_ok_packet(first_packet)'
p333
sI1306
S'            elif first_packet.is_load_local_packet():'
p334
ssg87
S'(self=<pymysql.connections.MySQLResult object>)'
p335
sg89
S'read'
p336
sa(dp337
g66
S'/usr/local/lib/python2.7/dist-packages/pymysql/connections.py'
p338
sg68
(dp339
S'packet'
p340
S'<pymysql.connections.MysqlPacket object>'
p341
sS'packet.check_error'
p342
S'<bound method MysqlPacket.check_error of <pymysql.connections.MysqlPacket object>>'
p343
ssg74
I981
sg75
(dp344
I976
S'                continue'
p345
sI977
S'            if bytes_to_read < MAX_PACKET_LEN:'
p346
sI978
S'                break'
p347
sI979
S''
sI980
S'        packet = packet_type(buff, self.encoding)'
p348
sI981
S'        packet.check_error()'
p349
sI982
S'        return packet'
p350
sI983
S''
sI984
S'    def _read_bytes(self, num_bytes):'
p351
sI985
S'        self._sock.settimeout(self._read_timeout)'
p352
ssg87
S"(self=<pymysql.connections.Connection object>, packet_type=<class 'pymysql.connections.MysqlPacket'>)"
p353
sg89
S'_read_packet'
p354
sa(dp355
g66
S'/usr/local/lib/python2.7/dist-packages/pymysql/connections.py'
p356
sg68
(dp357
S'self._data'
p358
S"'\\xff/\\x04#42000Specified key was too long; max key length is 767 bytes'"
p359
sS'self'
p360
S'<pymysql.connections.MysqlPacket object>'
p361
sS'global err'
p362
S"<module 'pymysql.err' from '/usr/local/lib/python2.7/dist-packages/pymysql/err.pyc'>"
p363
sS'err.raise_mysql_exception'
p364
S'<function raise_mysql_exception>'
p365
ssg74
I393
sg75
(dp366
I388
S'        if self.is_error_packet():'
p367
sI389
S'            self.rewind()'
p368
sI390
S'            self.advance(1)  # field_count == error (we already know that)'
p369
sI391
S'            errno = self.read_uint16()'
p370
sI392
S'            if DEBUG: print("errno =", errno)'
p371
sI393
S'            err.raise_mysql_exception(self._data)'
p372
sI394
S''
sI395
S'    def dump(self):'
p373
sI396
S'        dump_packet(self._data)'
p374
sI397
S''
ssg87
S'(self=<pymysql.connections.MysqlPacket object>)'
p375
sg89
S'check_error'
p376
sa(dp377
g66
S'/usr/local/lib/python2.7/dist-packages/pymysql/err.py'
p378
sg68
(dp379
S'errorclass'
p380
S"<class 'pymysql.err.InternalError'>"
p381
sS'errno'
p382
S'1071'
p383
sS'errval'
p384
S"u'Specified key was too long; max key length is 767 bytes'"
p385
ssg74
I107
sg75
(dp386
I98
S'def raise_mysql_exception(data):'
p387
sI99
S"    errno = struct.unpack('<h', data[1:3])[0]"
p388
sI100
S'    is_41 = data[3:4] == b"#"'
p389
sI101
S'    if is_41:'
p390
sI102
S'        # client protocol 4.1'
p391
sI103
S"        errval = data[9:].decode('utf-8', 'replace')"
p392
sI104
S'    else:'
p393
sI105
S"        errval = data[3:].decode('utf-8', 'replace')"
p394
sI106
S'    errorclass = error_map.get(errno, InternalError)'
p395
sI107
S'    raise errorclass(errno, errval)'
p396
ssg87
S"(data='\\xff/\\x04#42000Specified key was too long; max key length is 767 bytes')"
p397
sg89
S'raise_mysql_exception'
p398
sasS'pyver'
p399
S'Python 2.7.6: /usr/bin/python (prefix: /usr)'
p400
sS'session'
p401
g61
(S'sa\t\x00\x00<div><table><tr><td style="font-weight:bold;vertical-align:top;">auth</td><td style="vertical-align:top;">:</td><td><div><table><tr><td style="font-weight:bold;vertical-align:top;">expiration</td><td style="vertical-align:top;">:</td><td><div>3600</div></td></tr><tr><td style="font-weight:bold;vertical-align:top;">hmac_key</td><td style="vertical-align:top;">:</td><td><div>873e0899-0f94-49f9-811c-ec92f0be5b83</div></td></tr><tr><td style="font-weight:bold;vertical-align:top;">last_visit</td><td style="vertical-align:top;">:</td><td><div>datetime.datetime(2016, 11, 1, 12, 53, 5, 718428)</div></td></tr><tr><td style="font-weight:bold;vertical-align:top;">remember_me</td><td style="vertical-align:top;">:</td><td><div>False</div></td></tr><tr><td style="font-weight:bold;vertical-align:top;">user</td><td style="vertical-align:top;">:</td><td><div><table><tr><td style="font-weight:bold;vertical-align:top;">email</td><td style="vertical-align:top;">:</td><td><div>sanu@gmail.com</div></td></tr><tr><td style="font-weight:bold;vertical-align:top;">first_name</td><td style="vertical-align:top;">:</td><td><div>sanu</div></td></tr><tr><td style="font-weight:bold;vertical-align:top;">id</td><td style="vertical-align:top;">:</td><td><div>1L</div></td></tr><tr><td style="font-weight:bold;vertical-align:top;">last_name</td><td style="vertical-align:top;">:</td><td><div>m</div></td></tr><tr><td style="font-weight:bold;vertical-align:top;">registration_id</td><td style="vertical-align:top;">:</td><td><div></div></td></tr><tr><td style="font-weight:bold;vertical-align:top;">registration_key</td><td style="vertical-align:top;">:</td><td><div></div></td></tr><tr><td style="font-weight:bold;vertical-align:top;">reset_password_key</td><td style="vertical-align:top;">:</td><td><div></div></td></tr></table></div></td></tr><tr><td style="font-weight:bold;vertical-align:top;">user_groups</td><td style="vertical-align:top;">:</td><td><div><table><tr><td style="font-weight:bold;vertical-align:top;">1</td><td style="vertical-align:top;">:</td><td><div>user_1</div></td></tr><tr><td style="font-weight:bold;vertical-align:top;">2</td><td style="vertical-align:top;">:</td><td><div>managers</div></td></tr></table></div></td></tr></table></div></td></tr><tr><td style="font-weight:bold;vertical-align:top;">flash</td><td style="vertical-align:top;">:</td><td><div>None</div></td></tr></table></div>'
tRp402
sS'etype'
p403
S"<class 'pymysql.err.InternalError'>"
p404
sS'date'
p405
S'Tue Nov  1 12:53:05 2016'
p406
sS'response'
p407
g61
(S'sL\x17\x00\x00<div><table><tr><td style="font-weight:bold;vertical-align:top;">body</td><td style="vertical-align:top;">:</td><td><div>&lt;cStringIO.StringO object at 0x7f09bc351b58&gt;</div></td></tr><tr><td style="font-weight:bold;vertical-align:top;">cookies</td><td style="vertical-align:top;">:</td><td><div><table><tr><td style="font-weight:bold;vertical-align:top;">session_id_app2</td><td style="vertical-align:top;">:</td><td><div>127.0.0.1-7c47f3e0-57bb-4d74-990c-e53a614be334<table><tr><td style="font-weight:bold;vertical-align:top;">comment</td><td style="vertical-align:top;">:</td><td><div></div></td></tr><tr><td style="font-weight:bold;vertical-align:top;">domain</td><td style="vertical-align:top;">:</td><td><div></div></td></tr><tr><td style="font-weight:bold;vertical-align:top;">expires</td><td style="vertical-align:top;">:</td><td><div></div></td></tr><tr><td style="font-weight:bold;vertical-align:top;">httponly</td><td style="vertical-align:top;">:</td><td><div></div></td></tr><tr><td style="font-weight:bold;vertical-align:top;">max-age</td><td style="vertical-align:top;">:</td><td><div></div></td></tr><tr><td style="font-weight:bold;vertical-align:top;">path</td><td style="vertical-align:top;">:</td><td><div>/</div></td></tr><tr><td style="font-weight:bold;vertical-align:top;">secure</td><td style="vertical-align:top;">:</td><td><div></div></td></tr><tr><td style="font-weight:bold;vertical-align:top;">version</td><td style="vertical-align:top;">:</td><td><div></div></td></tr></table></div></td></tr></table></div></td></tr><tr><td style="font-weight:bold;vertical-align:top;">delimiters</td><td style="vertical-align:top;">:</td><td><div><table><tr><td><div>{{</div></td></tr><tr><td><div>}}</div></td></tr></table></div></td></tr><tr><td style="font-weight:bold;vertical-align:top;">files</td><td style="vertical-align:top;">:</td><td><div><table></table></div></td></tr><tr><td style="font-weight:bold;vertical-align:top;">flash</td><td style="vertical-align:top;">:</td><td><div></div></td></tr><tr><td style="font-weight:bold;vertical-align:top;">form_label_separator</td><td style="vertical-align:top;">:</td><td><div></div></td></tr><tr><td style="font-weight:bold;vertical-align:top;">formstyle</td><td style="vertical-align:top;">:</td><td><div>bootstrap3_inline</div></td></tr><tr><td style="font-weight:bold;vertical-align:top;">generic_patterns</td><td style="vertical-align:top;">:</td><td><div><table><tr><td><div>*</div></td></tr></table></div></td></tr><tr><td style="font-weight:bold;vertical-align:top;">headers</td><td style="vertical-align:top;">:</td><td><div><table><tr><td style="font-weight:bold;vertical-align:top;">X-Powered-By</td><td style="vertical-align:top;">:</td><td><div>web2py</div></td></tr></table></div></td></tr><tr><td style="font-weight:bold;vertical-align:top;">menu</td><td style="vertical-align:top;">:</td><td><div><table></table></div></td></tr><tr><td style="font-weight:bold;vertical-align:top;">meta</td><td style="vertical-align:top;">:</td><td><div><table></table></div></td></tr><tr><td style="font-weight:bold;vertical-align:top;">models_to_run</td><td style="vertical-align:top;">:</td><td><div><table><tr><td><div>^\\w+\\.py$</div></td></tr><tr><td><div>^default/\\w+\\.py$</div></td></tr><tr><td><div>^default/test/\\w+\\.py$</div></td></tr></table></div></td></tr><tr><td style="font-weight:bold;vertical-align:top;">postprocessing</td><td style="vertical-align:top;">:</td><td><div><table></table></div></td></tr><tr><td style="font-weight:bold;vertical-align:top;">session_client</td><td style="vertical-align:top;">:</td><td><div>127.0.0.1</div></td></tr><tr><td style="font-weight:bold;vertical-align:top;">session_cookie_compression_level</td><td style="vertical-align:top;">:</td><td><div>None</div></td></tr><tr><td style="font-weight:bold;vertical-align:top;">session_cookie_expires</td><td style="vertical-align:top;">:</td><td><div>None</div></td></tr><tr><td style="font-weight:bold;vertical-align:top;">session_data_name</td><td style="vertical-align:top;">:</td><td><div>session_data_app2</div></td></tr><tr><td style="font-weight:bold;vertical-align:top;">session_file</td><td style="vertical-align:top;">:</td><td><div>&lt;open file &#x27;/home/sanu/web2py/applications/app2/sessions/10c/1c0/127.0.0.1-7c47f3e0-57bb-4d74-990c-e53a614be334&#x27;, mode &#x27;rb+&#x27; at 0x7f099a9325d0&gt;</div></td></tr><tr><td style="font-weight:bold;vertical-align:top;">session_filename</td><td style="vertical-align:top;">:</td><td><div>/home/sanu/web2py/applications/app2/sessions/127.0.0.1-7c47f3e0-57bb-4d74-990c-e53a614be334</div></td></tr><tr><td style="font-weight:bold;vertical-align:top;">session_hash</td><td style="vertical-align:top;">:</td><td><div>3cf6a52415e6ad1482565c8ed7706771</div></td></tr><tr><td style="font-weight:bold;vertical-align:top;">session_id</td><td style="vertical-align:top;">:</td><td><div>127.0.0.1-7c47f3e0-57bb-4d74-990c-e53a614be334</div></td></tr><tr><td style="font-weight:bold;vertical-align:top;">session_id_name</td><td style="vertical-align:top;">:</td><td><div>session_id_app2</div></td></tr><tr><td style="font-weight:bold;vertical-align:top;">session_locked</td><td style="vertical-align:top;">:</td><td><div>True</div></td></tr><tr><td style="font-weight:bold;vertical-align:top;">session_masterapp</td><td style="vertical-align:top;">:</td><td><div>app2</div></td></tr><tr><td style="font-weight:bold;vertical-align:top;">session_new</td><td style="vertical-align:top;">:</td><td><div>False</div></td></tr><tr><td style="font-weight:bold;vertical-align:top;">session_storage_type</td><td style="vertical-align:top;">:</td><td><div>file</div></td></tr><tr><td style="font-weight:bold;vertical-align:top;">status</td><td style="vertical-align:top;">:</td><td><div>200</div></td></tr><tr><td style="font-weight:bold;vertical-align:top;">view</td><td style="vertical-align:top;">:</td><td><div>default/test.html</div></td></tr></table></div>'
tRp408
sS'locals'
p409
(dp410
S'errorclass'
p411
S"<class 'pymysql.err.InternalError'>"
p412
sS'errno'
p413
S'1071'
p414
sS'is_41'
p415
g97
sS'errval'
p416
S"u'Specified key was too long; max key length is 767 bytes'"
p417
sS'data'
p418
S"'\\xff/\\x04#42000Specified key was too long; max key length is 767 bytes'"
p419
sssS'traceback'
p420
S'Traceback (most recent call last):\n  File "/home/sanu/web2py/gluon/restricted.py", line 227, in restricted\n    exec ccode in environment\n  File "/home/sanu/web2py/applications/app2/models/db1.py", line 17, in <module>\n    Field(\'email\', unique = True, requires= IS_EMAIL()))\n  File "/home/sanu/web2py/gluon/packages/dal/pydal/base.py", line 834, in define_table\n    table = self.lazy_define_table(tablename,*fields,**args)\n  File "/home/sanu/web2py/gluon/packages/dal/pydal/base.py", line 873, in lazy_define_table\n    polymodel=polymodel)\n  File "/home/sanu/web2py/gluon/packages/dal/pydal/adapters/base.py", line 510, in create_table\n    fake_migrate=fake_migrate\n  File "/home/sanu/web2py/gluon/packages/dal/pydal/adapters/base.py", line 623, in migrate_table\n    self.execute(sub_query)\n  File "/home/sanu/web2py/gluon/packages/dal/pydal/adapters/base.py", line 1388, in execute\n    return self.log_execute(*a, **b)\n  File "/home/sanu/web2py/gluon/packages/dal/pydal/adapters/base.py", line 1382, in log_execute\n    ret = self.get_cursor().execute(command, *a[1:], **b)\n  File "/usr/local/lib/python2.7/dist-packages/pymysql/cursors.py", line 166, in execute\n    result = self._query(query)\n  File "/usr/local/lib/python2.7/dist-packages/pymysql/cursors.py", line 322, in _query\n    conn.query(q)\n  File "/usr/local/lib/python2.7/dist-packages/pymysql/connections.py", line 835, in query\n    self._affected_rows = self._read_query_result(unbuffered=unbuffered)\n  File "/usr/local/lib/python2.7/dist-packages/pymysql/connections.py", line 1019, in _read_query_result\n    result.read()\n  File "/usr/local/lib/python2.7/dist-packages/pymysql/connections.py", line 1302, in read\n    first_packet = self.connection._read_packet()\n  File "/usr/local/lib/python2.7/dist-packages/pymysql/connections.py", line 981, in _read_packet\n    packet.check_error()\n  File "/usr/local/lib/python2.7/dist-packages/pymysql/connections.py", line 393, in check_error\n    err.raise_mysql_exception(self._data)\n  File "/usr/local/lib/python2.7/dist-packages/pymysql/err.py", line 107, in raise_mysql_exception\n    raise errorclass(errno, errval)\nInternalError: (1071, u\'Specified key was too long; max key length is 767 bytes\')\n'
p421
s.